; Function Attrs: nounwind uwtable
define nonnull ptr @l_Lean_Lsp_beqSymbolKind____x40_Lean_Data_Lsp_LanguageFeatures___hyg_4828____boxed(ptr noundef %0, ptr noundef %1) #0 {
  %3 = ptrtoint ptr %0 to i64
  %4 = and i64 %3, 1
  %.not = icmp eq i64 %4, 0
  br i1 %.not, label %5, label %lean_dec.exit7

5:                                                ; preds = %2
  %6 = load i32, ptr %0, align 4, !tbaa !8
  %7 = icmp sgt i32 %6, 1
  br i1 %7, label %8, label %10, !prof !11

8:                                                ; preds = %5
  %9 = add nsw i32 %6, -1
  store i32 %9, ptr %0, align 4, !tbaa !8
  br label %lean_dec.exit7

10:                                               ; preds = %5
  %.not.i = icmp eq i32 %6, 0
  br i1 %.not.i, label %lean_dec.exit7, label %11

11:                                               ; preds = %10
  tail call void @lean_dec_ref_cold(ptr noundef nonnull %0) #9
  br label %lean_dec.exit7

lean_dec.exit7:                                   ; preds = %11, %10, %8, %2
  %12 = ptrtoint ptr %1 to i64
  %13 = and i64 %12, 1
  %.not10 = icmp eq i64 %13, 0
  br i1 %.not10, label %14, label %lean_dec.exit

14:                                               ; preds = %lean_dec.exit7
  %15 = load i32, ptr %1, align 4, !tbaa !8
  %16 = icmp sgt i32 %15, 1
  br i1 %16, label %17, label %19, !prof !11

17:                                               ; preds = %14
  %18 = add nsw i32 %15, -1
  store i32 %18, ptr %1, align 4, !tbaa !8
  br label %lean_dec.exit

19:                                               ; preds = %14
  %.not.i8 = icmp eq i32 %15, 0
  br i1 %.not.i8, label %lean_dec.exit, label %20

20:                                               ; preds = %19
  tail call void @lean_dec_ref_cold(ptr noundef nonnull %1) #9
  br label %lean_dec.exit

lean_dec.exit:                                    ; preds = %20, %19, %17, %lean_dec.exit7
  %21 = lshr i64 %12, 1
  %22 = trunc i64 %21 to i8
  %23 = lshr i64 %3, 1
  %24 = trunc i64 %23 to i8
  %25 = tail call zeroext i8 @l_Lean_Lsp_beqSymbolKind____x40_Lean_Data_Lsp_LanguageFeatures___hyg_4828_(i8 noundef zeroext %24, i8 noundef zeroext %22)
  %26 = shl nuw nsw i8 %25, 1
  %27 = or disjoint i8 %26, 1
  %28 = zext nneg i8 %27 to i64
  %29 = inttoptr i64 %28 to ptr
  ret ptr %29
}